target datalayout = "e-m:e-p270:32:32-p271:32:32-p272:64:64-i64:64-i128:128-f80:128-n8:16:32:64-S128"
target triple = "x86_64-pc-linux-gnu"

%struct._zval_struct = type { %union._zend_value, %union.anon.3, %union.anon.6 }
%union._zend_value = type { i64 }
%union.anon.3 = type { i32 }
%union.anon.6 = type { i32 }
%struct._zend_refcounted_h = type { i32, %union.anon }
%union.anon = type { i32 }
%struct._zend_execute_data = type { ptr, ptr, ptr, ptr, %struct._zval_struct, ptr, ptr, ptr, ptr }
%struct._zend_string = type { %struct._zend_refcounted_h, i64, i64, [1 x i8] }
%struct.statvfs = type { i64, i64, i64, i64, i64, i64, i64, i64, i64, i64, i64, [6 x i32] }

@.str.2 = private unnamed_addr constant [3 x i8] c"%s\00", align 1

; Function Attrs: nounwind uwtable
define internal i32 @php_disk_free_space(ptr noundef %0, ptr noundef %1) #0 {
  %3 = alloca i32, align 4
  %4 = alloca ptr, align 8
  %5 = alloca ptr, align 8
  %6 = alloca double, align 8
  %7 = alloca %struct.statvfs, align 8
  store ptr %0, ptr %4, align 8
  store ptr %1, ptr %5, align 8
  store double 0.000000e+00, ptr %6, align 8
  %8 = load ptr, ptr %4, align 8
  %9 = call i32 @statvfs(ptr noundef %8, ptr noundef %7) #10
  %10 = icmp ne i32 %9, 0
  br i1 %10, label %11, label %15

11:                                               ; preds = %2
  %12 = call ptr @__errno_location() #12
  %13 = load i32, ptr %12, align 4
  %14 = call ptr @strerror(i32 noundef %13) #10
  call void (ptr, i32, ptr, ...) @php_error_docref(ptr noundef null, i32 noundef 2, ptr noundef @.str.2, ptr noundef %14)
  store i32 -1, ptr %3, align 4
  br label %38

15:                                               ; preds = %2
  %16 = getelementptr inbounds %struct.statvfs, ptr %7, i32 0, i32 1
  %17 = load i64, ptr %16, align 8
  %18 = icmp ne i64 %17, 0
  br i1 %18, label %19, label %27

19:                                               ; preds = %15
  %20 = getelementptr inbounds %struct.statvfs, ptr %7, i32 0, i32 4
  %21 = load i64, ptr %20, align 8
  %22 = uitofp i64 %21 to double
  %23 = getelementptr inbounds %struct.statvfs, ptr %7, i32 0, i32 1
  %24 = load i64, ptr %23, align 8
  %25 = uitofp i64 %24 to double
  %26 = fmul double %22, %25
  store double %26, ptr %6, align 8
  br label %35

27:                                               ; preds = %15
  %28 = getelementptr inbounds %struct.statvfs, ptr %7, i32 0, i32 4
  %29 = load i64, ptr %28, align 8
  %30 = uitofp i64 %29 to double
  %31 = getelementptr inbounds %struct.statvfs, ptr %7, i32 0, i32 0
  %32 = load i64, ptr %31, align 8
  %33 = uitofp i64 %32 to double
  %34 = fmul double %30, %33
  store double %34, ptr %6, align 8
  br label %35

35:                                               ; preds = %27, %19
  %36 = load double, ptr %6, align 8
  %37 = load ptr, ptr %5, align 8
  store double %36, ptr %37, align 8
  store i32 0, ptr %3, align 4
  br label %38

38:                                               ; preds = %35, %11
  %39 = load i32, ptr %3, align 4
  ret i32 %39
}

; Function Attrs: nounwind uwtable
define hidden void @zif_disk_free_space(ptr noundef %0, ptr noundef %1) #0 {
  %3 = alloca ptr, align 8
  %4 = alloca ptr, align 8
  %5 = alloca i1, align 1
  %6 = alloca ptr, align 8
  %7 = alloca ptr, align 8
  %8 = alloca i8, align 1
  %9 = alloca i32, align 4
  %10 = alloca i8, align 1
  %11 = alloca ptr, align 8
  %12 = alloca ptr, align 8
  %13 = alloca i8, align 1
  %14 = alloca i32, align 4
  %15 = alloca ptr, align 8
  %16 = alloca i64, align 8
  %17 = alloca i1, align 1
  %18 = alloca ptr, align 8
  %19 = alloca ptr, align 8
  %20 = alloca i8, align 1
  %21 = alloca i32, align 4
  %22 = alloca i1, align 1
  %23 = alloca ptr, align 8
  %24 = alloca ptr, align 8
  %25 = alloca ptr, align 8
  %26 = alloca i8, align 1
  %27 = alloca i32, align 4
  %28 = alloca ptr, align 8
  %29 = alloca ptr, align 8
  %30 = alloca ptr, align 8
  %31 = alloca double, align 8
  %32 = alloca ptr, align 8
  %33 = alloca [4096 x i8], align 16
  %34 = alloca i64, align 8
  %35 = alloca i32, align 4
  %36 = alloca i32, align 4
  %37 = alloca i32, align 4
  %38 = alloca i32, align 4
  %39 = alloca i32, align 4
  %40 = alloca ptr, align 8
  %41 = alloca ptr, align 8
  %42 = alloca i32, align 4
  %43 = alloca ptr, align 8
  %44 = alloca i8, align 1
  %45 = alloca i8, align 1
  %46 = alloca i32, align 4
  %47 = alloca ptr, align 8
  store ptr %0, ptr %29, align 8
  store ptr %1, ptr %30, align 8
  br label %48

48:                                               ; preds = %2
  store i32 0, ptr %35, align 4
  store i32 1, ptr %36, align 4
  store i32 1, ptr %37, align 4
  %49 = load ptr, ptr %29, align 8
  %50 = getelementptr inbounds %struct._zend_execute_data, ptr %49, i32 0, i32 4
  %51 = getelementptr inbounds %struct._zval_struct, ptr %50, i32 0, i32 2
  %52 = load i32, ptr %51, align 4
  store i32 %52, ptr %38, align 4
  store i32 0, ptr %39, align 4
  store ptr null, ptr %41, align 8
  store i32 0, ptr %42, align 4
  store ptr null, ptr %43, align 8
  store i8 0, ptr %44, align 1
  store i8 0, ptr %45, align 1
  store i32 0, ptr %46, align 4
  br label %53

53:                                               ; preds = %48
  %54 = load i32, ptr %38, align 4
  %55 = load i32, ptr %36, align 4
  %56 = icmp ult i32 %54, %55
  %57 = xor i1 %56, true
  %58 = xor i1 %57, true
  %59 = zext i1 %58 to i32
  %60 = sext i32 %59 to i64
  %61 = icmp ne i64 %60, 0
  br i1 %61, label %71, label %62

62:                                               ; preds = %53
  %63 = load i32, ptr %38, align 4
  %64 = load i32, ptr %37, align 4
  %65 = icmp ugt i32 %63, %64
  %66 = xor i1 %65, true
  %67 = xor i1 %66, true
  %68 = zext i1 %67 to i32
  %69 = sext i32 %68 to i64
  %70 = icmp ne i64 %69, 0
  br i1 %70, label %71, label %74

71:                                               ; preds = %62, %53
  %72 = load i32, ptr %36, align 4
  %73 = load i32, ptr %37, align 4
  call void @zend_wrong_parameters_count_error(i32 noundef %72, i32 noundef %73)
  store i32 1, ptr %46, align 4
  br label %231

74:                                               ; preds = %62
  %75 = load ptr, ptr %29, align 8
  %76 = getelementptr inbounds %struct._zval_struct, ptr %75, i64 4
  store ptr %76, ptr %40, align 8
  %77 = load i32, ptr %39, align 4
  %78 = add i32 %77, 1
  store i32 %78, ptr %39, align 4
  %79 = load i32, ptr %39, align 4
  %80 = load i32, ptr %36, align 4
  %81 = icmp ule i32 %79, %80
  br i1 %81, label %87, label %82

82:                                               ; preds = %74
  %83 = load i8, ptr %45, align 1
  %84 = trunc i8 %83 to i1
  %85 = zext i1 %84 to i32
  %86 = icmp eq i32 %85, 1
  br label %87

87:                                               ; preds = %82, %74
  %88 = phi i1 [ true, %74 ], [ %86, %82 ]
  call void @llvm.assume(i1 %88)
  %89 = load i32, ptr %39, align 4
  %90 = load i32, ptr %36, align 4
  %91 = icmp ugt i32 %89, %90
  br i1 %91, label %97, label %92

92:                                               ; preds = %87
  %93 = load i8, ptr %45, align 1
  %94 = trunc i8 %93 to i1
  %95 = zext i1 %94 to i32
  %96 = icmp eq i32 %95, 0
  br label %97

97:                                               ; preds = %92, %87
  %98 = phi i1 [ true, %87 ], [ %96, %92 ]
  call void @llvm.assume(i1 %98)
  %99 = load i8, ptr %45, align 1
  %100 = trunc i8 %99 to i1
  br i1 %100, label %101, label %112

101:                                              ; preds = %97
  %102 = load i32, ptr %39, align 4
  %103 = load i32, ptr %38, align 4
  %104 = icmp ugt i32 %102, %103
  %105 = xor i1 %104, true
  %106 = xor i1 %105, true
  %107 = zext i1 %106 to i32
  %108 = sext i32 %107 to i64
  %109 = icmp ne i64 %108, 0
  br i1 %109, label %110, label %111

110:                                              ; preds = %101
  br label %231

111:                                              ; preds = %101
  br label %112

112:                                              ; preds = %111, %97
  %113 = load ptr, ptr %40, align 8
  %114 = getelementptr inbounds %struct._zval_struct, ptr %113, i32 1
  store ptr %114, ptr %40, align 8
  %115 = load ptr, ptr %40, align 8
  store ptr %115, ptr %41, align 8
  %116 = load ptr, ptr %41, align 8
  %117 = load i32, ptr %39, align 4
  store ptr %116, ptr %23, align 8
  store ptr %32, ptr %24, align 8
  store ptr %34, ptr %25, align 8
  store i8 0, ptr %26, align 1
  store i32 %117, ptr %27, align 4
  %118 = load ptr, ptr %23, align 8
  %119 = load i8, ptr %26, align 1
  %120 = trunc i8 %119 to i1
  %121 = load i32, ptr %27, align 4
  store ptr %118, ptr %18, align 8
  store ptr %28, ptr %19, align 8
  %122 = zext i1 %120 to i8
  store i8 %122, ptr %20, align 1
  store i32 %121, ptr %21, align 4
  %123 = load ptr, ptr %18, align 8
  %124 = load ptr, ptr %19, align 8
  %125 = load i8, ptr %20, align 1
  %126 = trunc i8 %125 to i1
  %127 = load i32, ptr %21, align 4
  store ptr %123, ptr %11, align 8
  store ptr %124, ptr %12, align 8
  %128 = zext i1 %126 to i8
  store i8 %128, ptr %13, align 1
  store i32 %127, ptr %14, align 4
  %129 = load ptr, ptr %11, align 8
  %130 = load ptr, ptr %12, align 8
  %131 = load i8, ptr %13, align 1
  %132 = trunc i8 %131 to i1
  %133 = load i32, ptr %14, align 4
  store ptr %129, ptr %6, align 8
  store ptr %130, ptr %7, align 8
  %134 = zext i1 %132 to i8
  store i8 %134, ptr %8, align 1
  store i32 %133, ptr %9, align 4
  store i8 0, ptr %10, align 1
  %135 = load ptr, ptr %6, align 8
  store ptr %135, ptr %3, align 8
  %136 = load ptr, ptr %3, align 8
  %137 = getelementptr inbounds %struct._zval_struct, ptr %136, i32 0, i32 1
  %138 = load i8, ptr %137, align 8
  %139 = zext i8 %138 to i32
  %140 = icmp eq i32 %139, 6
  br i1 %140, label %141, label %145

141:                                              ; preds = %112
  %142 = load ptr, ptr %6, align 8
  %143 = load ptr, ptr %142, align 8
  %144 = load ptr, ptr %7, align 8
  store ptr %143, ptr %144, align 8
  br label %170

145:                                              ; preds = %112
  %146 = load i8, ptr %8, align 1
  %147 = trunc i8 %146 to i1
  br i1 %147, label %148, label %157

148:                                              ; preds = %145
  %149 = load ptr, ptr %6, align 8
  store ptr %149, ptr %4, align 8
  %150 = load ptr, ptr %4, align 8
  %151 = getelementptr inbounds %struct._zval_struct, ptr %150, i32 0, i32 1
  %152 = load i8, ptr %151, align 8
  %153 = zext i8 %152 to i32
  %154 = icmp eq i32 %153, 1
  br i1 %154, label %155, label %157

155:                                              ; preds = %148
  %156 = load ptr, ptr %7, align 8
  store ptr null, ptr %156, align 8
  br label %170

157:                                              ; preds = %148, %145
  %158 = load i8, ptr %10, align 1
  %159 = trunc i8 %158 to i1
  br i1 %159, label %160, label %165

160:                                              ; preds = %157
  %161 = load ptr, ptr %6, align 8
  %162 = load ptr, ptr %7, align 8
  %163 = load i32, ptr %9, align 4
  %164 = call zeroext i1 @zend_flf_parse_arg_str_slow(ptr noundef %161, ptr noundef %162, i32 noundef %163) #10
  store i1 %164, ptr %5, align 1
  br label %171

165:                                              ; preds = %157
  %166 = load ptr, ptr %6, align 8
  %167 = load ptr, ptr %7, align 8
  %168 = load i32, ptr %9, align 4
  %169 = call zeroext i1 @zend_parse_arg_str_slow(ptr noundef %166, ptr noundef %167, i32 noundef %168) #10
  store i1 %169, ptr %5, align 1
  br label %171

170:                                              ; preds = %155, %141
  store i1 true, ptr %5, align 1
  br label %171

171:                                              ; preds = %170, %165, %160
  %172 = load i1, ptr %5, align 1
  br i1 %172, label %173, label %189

173:                                              ; preds = %171
  %174 = load ptr, ptr %19, align 8
  %175 = load ptr, ptr %174, align 8
  %176 = icmp ne ptr %175, null
  br i1 %176, label %177, label %190

177:                                              ; preds = %173
  %178 = load ptr, ptr %19, align 8
  %179 = load ptr, ptr %178, align 8
  %180 = getelementptr inbounds %struct._zend_string, ptr %179, i32 0, i32 3
  %181 = load ptr, ptr %19, align 8
  %182 = load ptr, ptr %181, align 8
  %183 = getelementptr inbounds %struct._zend_string, ptr %182, i32 0, i32 2
  %184 = load i64, ptr %183, align 8
  store ptr %180, ptr %15, align 8
  store i64 %184, ptr %16, align 8
  %185 = load i64, ptr %16, align 8
  %186 = load ptr, ptr %15, align 8
  %187 = call i64 @strlen(ptr noundef %186) #11
  %188 = icmp ne i64 %185, %187
  br i1 %188, label %189, label %190

189:                                              ; preds = %177, %171
  store i1 false, ptr %17, align 1
  br label %191

190:                                              ; preds = %177, %173
  store i1 true, ptr %17, align 1
  br label %191

191:                                              ; preds = %190, %189
  %192 = load i1, ptr %17, align 1
  br i1 %192, label %194, label %193

193:                                              ; preds = %191
  store i1 false, ptr %22, align 1
  br label %213

194:                                              ; preds = %191
  %195 = load i8, ptr %26, align 1
  %196 = trunc i8 %195 to i1
  br i1 %196, label %197, label %204

197:                                              ; preds = %194
  %198 = load ptr, ptr %28, align 8
  %199 = icmp ne ptr %198, null
  %200 = xor i1 %199, true
  br i1 %200, label %201, label %204

201:                                              ; preds = %197
  %202 = load ptr, ptr %24, align 8
  store ptr null, ptr %202, align 8
  %203 = load ptr, ptr %25, align 8
  store i64 0, ptr %203, align 8
  br label %212

204:                                              ; preds = %197, %194
  %205 = load ptr, ptr %28, align 8
  %206 = getelementptr inbounds %struct._zend_string, ptr %205, i32 0, i32 3
  %207 = load ptr, ptr %24, align 8
  store ptr %206, ptr %207, align 8
  %208 = load ptr, ptr %28, align 8
  %209 = getelementptr inbounds %struct._zend_string, ptr %208, i32 0, i32 2
  %210 = load i64, ptr %209, align 8
  %211 = load ptr, ptr %25, align 8
  store i64 %210, ptr %211, align 8
  br label %212

212:                                              ; preds = %204, %201
  store i1 true, ptr %22, align 1
  br label %213

213:                                              ; preds = %212, %193
  %214 = load i1, ptr %22, align 1
  %215 = xor i1 %214, true
  %216 = xor i1 %215, true
  %217 = xor i1 %216, true
  %218 = zext i1 %217 to i32
  %219 = sext i32 %218 to i64
  %220 = icmp ne i64 %219, 0
  br i1 %220, label %221, label %222

221:                                              ; preds = %213
  store i32 16, ptr %42, align 4
  store i32 9, ptr %46, align 4
  br label %231

222:                                              ; preds = %213
  %223 = load i32, ptr %39, align 4
  %224 = load i32, ptr %37, align 4
  %225 = icmp eq i32 %223, %224
  br i1 %225, label %229, label %226

226:                                              ; preds = %222
  %227 = load i32, ptr %37, align 4
  %228 = icmp eq i32 %227, -1
  br label %229

229:                                              ; preds = %226, %222
  %230 = phi i1 [ true, %222 ], [ %228, %226 ]
  call void @llvm.assume(i1 %230)
  br label %231

231:                                              ; preds = %229, %221, %110, %71
  %232 = load i32, ptr %46, align 4
  %233 = icmp ne i32 %232, 0
  %234 = xor i1 %233, true
  %235 = xor i1 %234, true
  %236 = zext i1 %235 to i32
  %237 = sext i32 %236 to i64
  %238 = icmp ne i64 %237, 0
  br i1 %238, label %239, label %245

239:                                              ; preds = %231
  %240 = load i32, ptr %46, align 4
  %241 = load i32, ptr %39, align 4
  %242 = load ptr, ptr %43, align 8
  %243 = load i32, ptr %42, align 4
  %244 = load ptr, ptr %41, align 8
  call void @zend_wrong_parameter_error(i32 noundef %240, i32 noundef %241, ptr noundef %242, i32 noundef %243, ptr noundef %244)
  br label %290

245:                                              ; preds = %231
  br label %246

246:                                              ; preds = %245
  %247 = load ptr, ptr %32, align 8
  %248 = getelementptr inbounds [4096 x i8], ptr %33, i64 0, i64 0
  %249 = call ptr @expand_filepath(ptr noundef %247, ptr noundef %248)
  %250 = icmp ne ptr %249, null
  br i1 %250, label %258, label %251

251:                                              ; preds = %246
  br label %252

252:                                              ; preds = %251
  br label %253

253:                                              ; preds = %252
  %254 = load ptr, ptr %30, align 8
  %255 = getelementptr inbounds %struct._zval_struct, ptr %254, i32 0, i32 1
  store i32 2, ptr %255, align 8
  br label %256

256:                                              ; preds = %253
  br label %290

257:                                              ; No predecessors!
  br label %258

258:                                              ; preds = %257, %246
  %259 = getelementptr inbounds [4096 x i8], ptr %33, i64 0, i64 0
  %260 = call i32 @php_check_open_basedir(ptr noundef %259)
  %261 = icmp ne i32 %260, 0
  br i1 %261, label %262, label %269

262:                                              ; preds = %258
  br label %263

263:                                              ; preds = %262
  br label %264

264:                                              ; preds = %263
  %265 = load ptr, ptr %30, align 8
  %266 = getelementptr inbounds %struct._zval_struct, ptr %265, i32 0, i32 1
  store i32 2, ptr %266, align 8
  br label %267

267:                                              ; preds = %264
  br label %290

268:                                              ; No predecessors!
  br label %269

269:                                              ; preds = %268, %258
  %270 = getelementptr inbounds [4096 x i8], ptr %33, i64 0, i64 0
  %271 = call i32 @php_disk_free_space(ptr noundef %270, ptr noundef %31)
  %272 = icmp eq i32 %271, 0
  br i1 %272, label %273, label %284

273:                                              ; preds = %269
  br label %274

274:                                              ; preds = %273
  br label %275

275:                                              ; preds = %274
  %276 = load ptr, ptr %30, align 8
  store ptr %276, ptr %47, align 8
  %277 = load double, ptr %31, align 8
  %278 = load ptr, ptr %47, align 8
  %279 = getelementptr inbounds %struct._zval_struct, ptr %278, i32 0, i32 0
  store double %277, ptr %279, align 8
  %280 = load ptr, ptr %47, align 8
  %281 = getelementptr inbounds %struct._zval_struct, ptr %280, i32 0, i32 1
  store i32 5, ptr %281, align 8
  br label %282

282:                                              ; preds = %275
  br label %290

283:                                              ; No predecessors!
  br label %284

284:                                              ; preds = %283, %269
  br label %285

285:                                              ; preds = %284
  br label %286

286:                                              ; preds = %285
  %287 = load ptr, ptr %30, align 8
  %288 = getelementptr inbounds %struct._zval_struct, ptr %287, i32 0, i32 1
  store i32 2, ptr %288, align 8
  br label %289

289:                                              ; preds = %286
  br label %290

290:                                              ; preds = %289, %282, %267, %256, %239
  ret void
}