; Function Attrs: nounwind uwtable
define hidden void @zif_disk_free_space(ptr noundef %0, ptr nocapture noundef writeonly %1) local_unnamed_addr #1 {
  %3 = alloca %struct.statvfs, align 8
  %4 = alloca ptr, align 8
  %5 = alloca [4096 x i8], align 16
  %6 = getelementptr inbounds i8, ptr %0, i64 44
  %7 = load i32, ptr %6, align 4
  %cond = icmp eq i32 %7, 1
  br i1 %cond, label %9, label %8

8:                                                ; preds = %2
  tail call void @zend_wrong_parameters_count_error(i32 noundef 1, i32 noundef 1) #16
  br label %24

9:                                                ; preds = %2
  %10 = getelementptr inbounds i8, ptr %0, i64 80
  %11 = getelementptr inbounds i8, ptr %0, i64 88
  %12 = load i8, ptr %11, align 8
  %13 = icmp eq i8 %12, 6
  br i1 %13, label %.critedge, label %15

.critedge:                                        ; preds = %9
  %14 = load ptr, ptr %10, align 8
  store ptr %14, ptr %4, align 8
  br label %17

15:                                               ; preds = %9
  %16 = call zeroext i1 @zend_parse_arg_str_slow(ptr noundef nonnull %10, ptr noundef nonnull %4, i32 noundef 1) #16
  br i1 %16, label %thread-pre-split, label %24

thread-pre-split:                                 ; preds = %15
  %.pr = load ptr, ptr %4, align 8
  br label %17

17:                                               ; preds = %thread-pre-split, %.critedge
  %18 = phi ptr [ %.pr, %thread-pre-split ], [ %14, %.critedge ]
  %.not85 = icmp eq ptr %18, null
  br i1 %.not85, label %25, label %19

19:                                               ; preds = %17
  %20 = getelementptr inbounds i8, ptr %18, i64 24
  %21 = getelementptr inbounds i8, ptr %18, i64 16
  %22 = load i64, ptr %21, align 8
  %23 = call i64 @strlen(ptr noundef nonnull dereferenceable(1) %20) #17
  %.not86 = icmp eq i64 %22, %23
  br i1 %.not86, label %25, label %24

24:                                               ; preds = %8, %19, %15
  %.080.ph = phi ptr [ %10, %15 ], [ %10, %19 ], [ null, %8 ]
  %.079.ph = phi i32 [ 16, %15 ], [ 16, %19 ], [ 0, %8 ]
  %.078.ph = phi i32 [ 1, %15 ], [ 1, %19 ], [ 0, %8 ]
  %.075.ph = phi i32 [ 9, %15 ], [ 9, %19 ], [ 1, %8 ]
  call void @zend_wrong_parameter_error(i32 noundef %.075.ph, i32 noundef %.078.ph, ptr noundef null, i32 noundef %.079.ph, ptr noundef %.080.ph) #16
  br label %52

25:                                               ; preds = %17, %19
  %26 = getelementptr inbounds i8, ptr %18, i64 24
  %27 = call ptr @expand_filepath(ptr noundef nonnull %26, ptr noundef nonnull %5) #16
  %.not88 = icmp eq ptr %27, null
  br i1 %.not88, label %28, label %30

28:                                               ; preds = %25
  %29 = getelementptr inbounds i8, ptr %1, i64 8
  store i32 2, ptr %29, align 8
  br label %52

30:                                               ; preds = %25
  %31 = call i32 @php_check_open_basedir(ptr noundef nonnull %5) #16
  %.not89 = icmp eq i32 %31, 0
  br i1 %.not89, label %34, label %32

32:                                               ; preds = %30
  %33 = getelementptr inbounds i8, ptr %1, i64 8
  store i32 2, ptr %33, align 8
  br label %52

34:                                               ; preds = %30
  call void @llvm.lifetime.start.p0(i64 112, ptr nonnull %3)
  %35 = call i32 @statvfs(ptr noundef nonnull %5, ptr noundef nonnull %3) #16
  %.not.i = icmp eq i32 %35, 0
  br i1 %.not.i, label %36, label %47

36:                                               ; preds = %34
  %37 = getelementptr inbounds i8, ptr %3, i64 8
  %38 = load i64, ptr %37, align 8
  %.not5.i = icmp eq i64 %38, 0
  %39 = getelementptr inbounds i8, ptr %3, i64 32
  %40 = load i64, ptr %39, align 8
  %41 = uitofp i64 %40 to double
  %42 = load i64, ptr %3, align 8
  %43 = uitofp i64 %42 to double
  %44 = uitofp i64 %38 to double
  %.sink6.i = select i1 %.not5.i, double %43, double %41
  %.sink.i = select i1 %.not5.i, double %41, double %44
  %45 = fmul double %.sink.i, %.sink6.i
  call void @llvm.lifetime.end.p0(i64 112, ptr nonnull %3)
  store double %45, ptr %1, align 8
  %46 = getelementptr inbounds i8, ptr %1, i64 8
  store i32 5, ptr %46, align 8
  br label %52

47:                                               ; preds = %34
  %48 = tail call ptr @__errno_location() #18
  %49 = load i32, ptr %48, align 4
  %50 = call ptr @strerror(i32 noundef %49) #16
  call void (ptr, i32, ptr, ...) @php_error_docref(ptr noundef null, i32 noundef 2, ptr noundef nonnull @.str.2, ptr noundef %50) #16
  call void @llvm.lifetime.end.p0(i64 112, ptr nonnull %3)
  %51 = getelementptr inbounds i8, ptr %1, i64 8
  store i32 2, ptr %51, align 8
  br label %52

52:                                               ; preds = %47, %36, %32, %28, %24
  ret void
}